; Function Attrs: mustprogress nounwind uwtable
define hidden noundef nonnull align 8 dereferenceable(36) ptr @_ZN5ceres12CostFunctionaSEOS0_(ptr noundef nonnull returned align 8 dereferenceable(36) %0, ptr nocapture noundef nonnull align 8 dereferenceable(36) %1) local_unnamed_addr #1 align 2 personality ptr @__gxx_personality_v0 {
  %3 = getelementptr inbounds i8, ptr %0, i64 8
  %4 = getelementptr inbounds i8, ptr %1, i64 8
  %5 = load ptr, ptr %3, align 8
  %6 = getelementptr inbounds i8, ptr %0, i64 16
  %7 = getelementptr inbounds i8, ptr %0, i64 24
  %8 = load ptr, ptr %4, align 8
  store ptr %8, ptr %3, align 8
  %9 = getelementptr inbounds i8, ptr %1, i64 16
  %10 = load ptr, ptr %9, align 8
  store ptr %10, ptr %6, align 8
  %11 = getelementptr inbounds i8, ptr %1, i64 24
  %12 = load ptr, ptr %11, align 8
  store ptr %12, ptr %7, align 8
  %.not.i.i.i.i.i = icmp eq ptr %5, null
  tail call void @llvm.memset.p0.i64(ptr noundef nonnull align 8 dereferenceable(24) %4, i8 0, i64 24, i1 false)
  br i1 %.not.i.i.i.i.i, label %_ZNSt6vectorIiSaIiEEaSEOS1_.exit, label %13

13:                                               ; preds = %2
  tail call void @_ZdlPv(ptr noundef nonnull %5) #7
  br label %_ZNSt6vectorIiSaIiEEaSEOS1_.exit

_ZNSt6vectorIiSaIiEEaSEOS1_.exit:                 ; preds = %2, %13
  %14 = getelementptr inbounds i8, ptr %1, i64 32
  %15 = load i32, ptr %14, align 8
  %16 = getelementptr inbounds i8, ptr %0, i64 32
  store i32 %15, ptr %16, align 8
  ret ptr %0
}